; Function Attrs: mustprogress null_pointer_is_valid sspstrong uwtable
define noundef zeroext i1 @_ZN10TrafficTab17hasNameResolutionEi(ptr noundef align 8 dereferenceable_or_null(130) %0, i32 noundef %1) local_unnamed_addr #3 align 2 {
  %3 = icmp eq i32 %1, -1
  br i1 %3, label %6, label %4

4:                                                ; preds = %2
  %5 = tail call noundef i32 @_ZNK10QTabWidget5countEv(ptr noundef align 8 dereferenceable_or_null(40) %0)
  %.not = icmp slt i32 %1, %5
  br i1 %.not, label %_ZN10TrafficTab20dataModelForTabIndexEi.exit, label %6

6:                                                ; preds = %2, %4
  %7 = tail call noundef i32 @_ZNK10QTabWidget12currentIndexEv(ptr noundef align 8 dereferenceable_or_null(40) %0)
  %8 = icmp eq i32 %7, -1
  br i1 %8, label %9, label %_ZN10TrafficTab20dataModelForTabIndexEi.exit

9:                                                ; preds = %6
  %10 = tail call noundef i32 @_ZNK10QTabWidget12currentIndexEv(ptr noundef align 8 dereferenceable_or_null(130) %0)
  br label %_ZN10TrafficTab20dataModelForTabIndexEi.exit

_ZN10TrafficTab20dataModelForTabIndexEi.exit:     ; preds = %4, %6, %9
  %.0.i = phi i32 [ %10, %9 ], [ %7, %6 ], [ %1, %4 ]
  %11 = tail call noundef ptr @_ZNK10QTabWidget6widgetEi(ptr noundef align 8 dereferenceable_or_null(130) %0, i32 noundef %.0.i)
  %12 = tail call noundef ptr @_ZN10TrafficTab18dataModelForWidgetEP7QWidget(ptr align 8 poison, ptr noundef %11)
  %.not9 = icmp eq ptr %12, null
  br i1 %.not9, label %15, label %13

13:                                               ; preds = %_ZN10TrafficTab20dataModelForTabIndexEi.exit
  %14 = tail call noundef zeroext i1 @_ZNK13ATapDataModel20allowsNameResolutionEv(ptr noundef nonnull align 8 dereferenceable_or_null(120) %12)
  br label %15

15:                                               ; preds = %_ZN10TrafficTab20dataModelForTabIndexEi.exit, %13
  %.0 = phi i1 [ %14, %13 ], [ false, %_ZN10TrafficTab20dataModelForTabIndexEi.exit ]
  ret i1 %.0
}